; Function Attrs: mustprogress nofree norecurse nosync nounwind willreturn memory(argmem: write) uwtable
define hidden void @_ZN2cv3ccm5GetCSC2Ev(ptr noundef nonnull align 8 dereferenceable(48) initializes((8, 12), (16, 24)) %0) unnamed_addr #11 align 2 personality ptr @__gxx_personality_v0 {
  %2 = getelementptr inbounds nuw i8, ptr %0, i64 8
  store i32 0, ptr %2, align 8, !tbaa !195
  %3 = getelementptr inbounds nuw i8, ptr %0, i64 16
  store ptr null, ptr %3, align 8, !tbaa !105
  %4 = getelementptr inbounds nuw i8, ptr %0, i64 24
  store ptr %2, ptr %4, align 8, !tbaa !196
  %5 = getelementptr inbounds nuw i8, ptr %0, i64 32
  store ptr %2, ptr %5, align 8, !tbaa !197
  %6 = getelementptr inbounds nuw i8, ptr %0, i64 40
  store i64 0, ptr %6, align 8, !tbaa !198
  ret void
}